target datalayout = "e-m:e-p270:32:32-p271:32:32-p272:64:64-i64:64-i128:128-f80:128-n8:16:32:64-S128"
target triple = "x86_64-pc-linux-gnu"

%struct.AV1RawTileData = type { ptr, ptr, i64 }
%struct.AV1RawTileList = type { i8, i8, i16, %struct.AV1RawTileData }

@.str.258 = private unnamed_addr constant [36 x i8] c"output_frame_width_in_tiles_minus_1\00", align 1
@.str.259 = private unnamed_addr constant [37 x i8] c"output_frame_height_in_tiles_minus_1\00", align 1
@.str.260 = private unnamed_addr constant [19 x i8] c"tile_count_minus_1\00", align 1

; Function Attrs: nounwind uwtable
define internal i32 @cbs_av1_read_tile_list_obu(ptr noundef %0, ptr noundef %1, ptr noundef %2) #0 {
  %4 = alloca i32, align 4
  %5 = alloca ptr, align 8
  %6 = alloca ptr, align 8
  %7 = alloca ptr, align 8
  %8 = alloca i32, align 4
  %9 = alloca i32, align 4
  %10 = alloca i32, align 4
  %11 = alloca i32, align 4
  %12 = alloca i32, align 4
  store ptr %0, ptr %5, align 8, !tbaa !4
  store ptr %1, ptr %6, align 8, !tbaa !103
  store ptr %2, ptr %7, align 8, !tbaa !179
  call void @llvm.lifetime.start.p0(i64 4, ptr %8) #8
  br label %13

13:                                               ; preds = %3
  call void @llvm.lifetime.start.p0(i64 4, ptr %9) #8
  br label %14

14:                                               ; preds = %13
  %15 = load ptr, ptr %5, align 8, !tbaa !4
  %16 = load ptr, ptr %6, align 8, !tbaa !103
  %17 = call i32 @ff_cbs_read_simple_unsigned(ptr noundef %15, ptr noundef %16, i32 noundef 8, ptr noundef @.str.258, ptr noundef %9)
  store i32 %17, ptr %8, align 4, !tbaa !11
  %18 = load i32, ptr %8, align 4, !tbaa !11
  %19 = icmp slt i32 %18, 0
  br i1 %19, label %20, label %22

20:                                               ; preds = %14
  %21 = load i32, ptr %8, align 4, !tbaa !11
  store i32 %21, ptr %4, align 4
  store i32 1, ptr %10, align 4
  br label %29

22:                                               ; preds = %14
  br label %23

23:                                               ; preds = %22
  br label %24

24:                                               ; preds = %23
  %25 = load i32, ptr %9, align 4, !tbaa !11
  %26 = trunc i32 %25 to i8
  %27 = load ptr, ptr %7, align 8, !tbaa !179
  %28 = getelementptr inbounds nuw %struct.AV1RawTileList, ptr %27, i32 0, i32 0
  store i8 %26, ptr %28, align 8, !tbaa !181
  store i32 0, ptr %10, align 4
  br label %29

29:                                               ; preds = %24, %20
  call void @llvm.lifetime.end.p0(i64 4, ptr %9) #8
  %30 = load i32, ptr %10, align 4
  switch i32 %30, label %76 [
    i32 0, label %31
  ]

31:                                               ; preds = %29
  br label %32

32:                                               ; preds = %31
  br label %33

33:                                               ; preds = %32
  br label %34

34:                                               ; preds = %33
  call void @llvm.lifetime.start.p0(i64 4, ptr %11) #8
  br label %35

35:                                               ; preds = %34
  %36 = load ptr, ptr %5, align 8, !tbaa !4
  %37 = load ptr, ptr %6, align 8, !tbaa !103
  %38 = call i32 @ff_cbs_read_simple_unsigned(ptr noundef %36, ptr noundef %37, i32 noundef 8, ptr noundef @.str.259, ptr noundef %11)
  store i32 %38, ptr %8, align 4, !tbaa !11
  %39 = load i32, ptr %8, align 4, !tbaa !11
  %40 = icmp slt i32 %39, 0
  br i1 %40, label %41, label %43

41:                                               ; preds = %35
  %42 = load i32, ptr %8, align 4, !tbaa !11
  store i32 %42, ptr %4, align 4
  store i32 1, ptr %10, align 4
  br label %50

43:                                               ; preds = %35
  br label %44

44:                                               ; preds = %43
  br label %45

45:                                               ; preds = %44
  %46 = load i32, ptr %11, align 4, !tbaa !11
  %47 = trunc i32 %46 to i8
  %48 = load ptr, ptr %7, align 8, !tbaa !179
  %49 = getelementptr inbounds nuw %struct.AV1RawTileList, ptr %48, i32 0, i32 1
  store i8 %47, ptr %49, align 1, !tbaa !183
  store i32 0, ptr %10, align 4
  br label %50

50:                                               ; preds = %45, %41
  call void @llvm.lifetime.end.p0(i64 4, ptr %11) #8
  %51 = load i32, ptr %10, align 4
  switch i32 %51, label %76 [
    i32 0, label %52
  ]

52:                                               ; preds = %50
  br label %53

53:                                               ; preds = %52
  br label %54

54:                                               ; preds = %53
  br label %55

55:                                               ; preds = %54
  call void @llvm.lifetime.start.p0(i64 4, ptr %12) #8
  br label %56

56:                                               ; preds = %55
  %57 = load ptr, ptr %5, align 8, !tbaa !4
  %58 = load ptr, ptr %6, align 8, !tbaa !103
  %59 = call i32 @ff_cbs_read_simple_unsigned(ptr noundef %57, ptr noundef %58, i32 noundef 16, ptr noundef @.str.260, ptr noundef %12)
  store i32 %59, ptr %8, align 4, !tbaa !11
  %60 = load i32, ptr %8, align 4, !tbaa !11
  %61 = icmp slt i32 %60, 0
  br i1 %61, label %62, label %64

62:                                               ; preds = %56
  %63 = load i32, ptr %8, align 4, !tbaa !11
  store i32 %63, ptr %4, align 4
  store i32 1, ptr %10, align 4
  br label %71

64:                                               ; preds = %56
  br label %65

65:                                               ; preds = %64
  br label %66

66:                                               ; preds = %65
  %67 = load i32, ptr %12, align 4, !tbaa !11
  %68 = trunc i32 %67 to i16
  %69 = load ptr, ptr %7, align 8, !tbaa !179
  %70 = getelementptr inbounds nuw %struct.AV1RawTileList, ptr %69, i32 0, i32 2
  store i16 %68, ptr %70, align 2, !tbaa !184
  store i32 0, ptr %10, align 4
  br label %71

71:                                               ; preds = %66, %62
  call void @llvm.lifetime.end.p0(i64 4, ptr %12) #8
  %72 = load i32, ptr %10, align 4
  switch i32 %72, label %76 [
    i32 0, label %73
  ]

73:                                               ; preds = %71
  br label %74

74:                                               ; preds = %73
  br label %75

75:                                               ; preds = %74
  store i32 0, ptr %4, align 4
  store i32 1, ptr %10, align 4
  br label %76

76:                                               ; preds = %75, %71, %50, %29
  call void @llvm.lifetime.end.p0(i64 4, ptr %8) #8
  %77 = load i32, ptr %4, align 4
  ret i32 %77
}