; Function Attrs: nounwind uwtable
define internal fastcc range(i32 -2147483648, 1) i32 @cbs_av1_read_tile_list_obu(ptr noundef %0, ptr noundef nonnull %1, ptr noundef writeonly captures(none) %2) unnamed_addr #0 {
  %4 = alloca i32, align 4
  %5 = alloca i32, align 4
  %6 = alloca i32, align 4
  call void @llvm.lifetime.start.p0(i64 4, ptr nonnull %4) #8
  %7 = call i32 @ff_cbs_read_simple_unsigned(ptr noundef %0, ptr noundef nonnull %1, i32 noundef 8, ptr noundef nonnull @.str.258, ptr noundef nonnull %4) #8
  %8 = icmp sgt i32 %7, -1
  br i1 %8, label %9, label %.critedge

9:                                                ; preds = %3
  %10 = load i32, ptr %4, align 4, !tbaa !69
  %11 = trunc i32 %10 to i8
  store i8 %11, ptr %2, align 8, !tbaa !137
  call void @llvm.lifetime.end.p0(i64 4, ptr nonnull %4) #8
  call void @llvm.lifetime.start.p0(i64 4, ptr nonnull %5) #8
  %12 = call i32 @ff_cbs_read_simple_unsigned(ptr noundef %0, ptr noundef nonnull %1, i32 noundef 8, ptr noundef nonnull @.str.259, ptr noundef nonnull %5) #8
  %13 = icmp sgt i32 %12, -1
  br i1 %13, label %15, label %14

14:                                               ; preds = %9
  call void @llvm.lifetime.end.p0(i64 4, ptr nonnull %5) #8
  br label %26

15:                                               ; preds = %9
  %16 = load i32, ptr %5, align 4, !tbaa !69
  %17 = trunc i32 %16 to i8
  %18 = getelementptr inbounds nuw i8, ptr %2, i64 1
  store i8 %17, ptr %18, align 1, !tbaa !139
  call void @llvm.lifetime.end.p0(i64 4, ptr nonnull %5) #8
  call void @llvm.lifetime.start.p0(i64 4, ptr nonnull %6) #8
  %19 = call i32 @ff_cbs_read_simple_unsigned(ptr noundef %0, ptr noundef nonnull %1, i32 noundef 16, ptr noundef nonnull @.str.260, ptr noundef nonnull %6) #8
  %20 = icmp sgt i32 %19, -1
  br i1 %20, label %21, label %25

21:                                               ; preds = %15
  %22 = load i32, ptr %6, align 4, !tbaa !69
  %23 = trunc i32 %22 to i16
  %24 = getelementptr inbounds nuw i8, ptr %2, i64 2
  store i16 %23, ptr %24, align 2, !tbaa !140
  br label %25

25:                                               ; preds = %15, %21
  %spec.select = phi i32 [ 0, %21 ], [ %19, %15 ]
  call void @llvm.lifetime.end.p0(i64 4, ptr nonnull %6) #8
  br label %26

.critedge:                                        ; preds = %3
  call void @llvm.lifetime.end.p0(i64 4, ptr nonnull %4) #8
  br label %26

26:                                               ; preds = %14, %25, %.critedge
  %.121 = phi i32 [ %12, %14 ], [ %7, %.critedge ], [ %spec.select, %25 ]
  ret i32 %.121
}